target datalayout = "e-m:e-p270:32:32-p271:32:32-p272:64:64-i64:64-i128:128-f80:128-n8:16:32:64-S128"
target triple = "x86_64-pc-linux-gnu"

%"class.llvm::StringRef" = type { ptr, i64 }
%"class.llvm::Twine" = type <{ %"union.llvm::Twine::Child", %"union.llvm::Twine::Child", i8, i8, [6 x i8] }>
%"union.llvm::Twine::Child" = type { %struct.anon }
%struct.anon = type { ptr, i64 }

@.str.174 = private unnamed_addr constant [30 x i8] c"unexpected token in directive\00", align 1
@.str.200 = private unnamed_addr constant [33 x i8] c"expected identifier in directive\00", align 1
@.str.305 = private unnamed_addr constant [22 x i8] c"unsupported encoding.\00", align 1

; Function Attrs: mustprogress nounwind uwtable
define linkonce_odr hidden noundef i64 @_ZNK4llvm9StringRef4sizeEv(ptr noundef nonnull align 8 dereferenceable(16) %0) #0 comdat align 2 {
  %2 = alloca ptr, align 8
  store ptr %0, ptr %2, align 8
  %3 = load ptr, ptr %2, align 8
  %4 = getelementptr inbounds nuw %"class.llvm::StringRef", ptr %3, i32 0, i32 1
  %5 = load i64, ptr %4, align 8
  ret i64 %5
}

; Function Attrs: mustprogress nounwind uwtable
define linkonce_odr hidden noundef ptr @_ZNK4llvm9StringRef4dataEv(ptr noundef nonnull align 8 dereferenceable(16) %0) #0 comdat align 2 {
  %2 = alloca ptr, align 8
  store ptr %0, ptr %2, align 8
  %3 = load ptr, ptr %2, align 8
  %4 = getelementptr inbounds nuw %"class.llvm::StringRef", ptr %3, i32 0, i32 0
  %5 = load ptr, ptr %4, align 8
  ret ptr %5
}

; Function Attrs: mustprogress nounwind uwtable
define linkonce_odr hidden void @_ZN4llvm5TwineC2ERKNS_9StringRefE(ptr noundef nonnull align 8 dereferenceable(34) %0, ptr noundef nonnull align 8 dereferenceable(16) %1) unnamed_addr #0 comdat align 2 {
  %3 = alloca ptr, align 8
  %4 = alloca ptr, align 8
  store ptr %0, ptr %3, align 8
  store ptr %1, ptr %4, align 8
  %5 = load ptr, ptr %3, align 8
  %6 = getelementptr inbounds nuw %"class.llvm::Twine", ptr %5, i32 0, i32 2
  store i8 5, ptr %6, align 8
  %7 = getelementptr inbounds nuw %"class.llvm::Twine", ptr %5, i32 0, i32 3
  store i8 1, ptr %7, align 1
  %8 = load ptr, ptr %4, align 8
  %9 = call noundef ptr @_ZNK4llvm9StringRef4dataEv(ptr noundef nonnull align 8 dereferenceable(16) %8)
  %10 = getelementptr inbounds nuw %"class.llvm::Twine", ptr %5, i32 0, i32 0
  %11 = getelementptr inbounds nuw %struct.anon, ptr %10, i32 0, i32 0
  store ptr %9, ptr %11, align 8
  %12 = load ptr, ptr %4, align 8
  %13 = call noundef i64 @_ZNK4llvm9StringRef4sizeEv(ptr noundef nonnull align 8 dereferenceable(16) %12)
  %14 = getelementptr inbounds nuw %"class.llvm::Twine", ptr %5, i32 0, i32 0
  %15 = getelementptr inbounds nuw %struct.anon, ptr %14, i32 0, i32 1
  store i64 %13, ptr %15, align 8
  ret void
}

; Function Attrs: mustprogress nounwind uwtable
define linkonce_odr hidden void @_ZN4llvm5TwineC2EPKc(ptr noundef nonnull align 8 dereferenceable(34) %0, ptr noundef %1) unnamed_addr #0 comdat align 2 {
  %3 = alloca ptr, align 8
  %4 = alloca ptr, align 8
  store ptr %0, ptr %3, align 8
  store ptr %1, ptr %4, align 8
  %5 = load ptr, ptr %3, align 8
  %6 = getelementptr inbounds nuw %"class.llvm::Twine", ptr %5, i32 0, i32 2
  store i8 1, ptr %6, align 8
  %7 = getelementptr inbounds nuw %"class.llvm::Twine", ptr %5, i32 0, i32 3
  store i8 1, ptr %7, align 1
  %8 = load ptr, ptr %4, align 8
  %9 = getelementptr inbounds i8, ptr %8, i64 0
  %10 = load i8, ptr %9, align 1
  %11 = sext i8 %10 to i32
  %12 = icmp ne i32 %11, 0
  br i1 %12, label %13, label %17

13:                                               ; preds = %2
  %14 = load ptr, ptr %4, align 8
  %15 = getelementptr inbounds nuw %"class.llvm::Twine", ptr %5, i32 0, i32 0
  store ptr %14, ptr %15, align 8
  %16 = getelementptr inbounds nuw %"class.llvm::Twine", ptr %5, i32 0, i32 2
  store i8 3, ptr %16, align 8
  br label %19

17:                                               ; preds = %2
  %18 = getelementptr inbounds nuw %"class.llvm::Twine", ptr %5, i32 0, i32 2
  store i8 1, ptr %18, align 8
  br label %19

19:                                               ; preds = %17, %13
  ret void
}

; Function Attrs: mustprogress nounwind uwtable
define internal noundef zeroext i1 @_ZL15isValidEncodingl(i64 noundef %0) #0 {
  %2 = alloca i1, align 1
  %3 = alloca i64, align 8
  %4 = alloca i32, align 4
  %5 = alloca i32, align 4
  store i64 %0, ptr %3, align 8
  %6 = load i64, ptr %3, align 8
  %7 = and i64 %6, -256
  %8 = icmp ne i64 %7, 0
  br i1 %8, label %9, label %10

9:                                                ; preds = %1
  store i1 false, ptr %2, align 1
  br label %53

10:                                               ; preds = %1
  %11 = load i64, ptr %3, align 8
  %12 = icmp eq i64 %11, 255
  br i1 %12, label %13, label %14

13:                                               ; preds = %10
  store i1 true, ptr %2, align 1
  br label %53

14:                                               ; preds = %10
  %15 = load i64, ptr %3, align 8
  %16 = and i64 %15, 15
  %17 = trunc i64 %16 to i32
  store i32 %17, ptr %4, align 4
  %18 = load i32, ptr %4, align 4
  %19 = icmp ne i32 %18, 0
  br i1 %19, label %20, label %42

20:                                               ; preds = %14
  %21 = load i32, ptr %4, align 4
  %22 = icmp ne i32 %21, 2
  br i1 %22, label %23, label %42

23:                                               ; preds = %20
  %24 = load i32, ptr %4, align 4
  %25 = icmp ne i32 %24, 3
  br i1 %25, label %26, label %42

26:                                               ; preds = %23
  %27 = load i32, ptr %4, align 4
  %28 = icmp ne i32 %27, 4
  br i1 %28, label %29, label %42

29:                                               ; preds = %26
  %30 = load i32, ptr %4, align 4
  %31 = icmp ne i32 %30, 10
  br i1 %31, label %32, label %42

32:                                               ; preds = %29
  %33 = load i32, ptr %4, align 4
  %34 = icmp ne i32 %33, 11
  br i1 %34, label %35, label %42

35:                                               ; preds = %32
  %36 = load i32, ptr %4, align 4
  %37 = icmp ne i32 %36, 12
  br i1 %37, label %38, label %42

38:                                               ; preds = %35
  %39 = load i32, ptr %4, align 4
  %40 = icmp ne i32 %39, 8
  br i1 %40, label %41, label %42

41:                                               ; preds = %38
  store i1 false, ptr %2, align 1
  br label %53

42:                                               ; preds = %38, %35, %32, %29, %26, %23, %20, %14
  %43 = load i64, ptr %3, align 8
  %44 = and i64 %43, 112
  %45 = trunc i64 %44 to i32
  store i32 %45, ptr %5, align 4
  %46 = load i32, ptr %5, align 4
  %47 = icmp ne i32 %46, 0
  br i1 %47, label %48, label %52

48:                                               ; preds = %42
  %49 = load i32, ptr %5, align 4
  %50 = icmp ne i32 %49, 16
  br i1 %50, label %51, label %52

51:                                               ; preds = %48
  store i1 false, ptr %2, align 1
  br label %53

52:                                               ; preds = %48, %42
  store i1 true, ptr %2, align 1
  br label %53

53:                                               ; preds = %52, %51, %41, %13, %9
  %54 = load i1, ptr %2, align 1
  ret i1 %54
}

; Function Attrs: mustprogress nounwind uwtable
define linkonce_odr hidden void @_ZN4llvm9StringRefC2Ev(ptr noundef nonnull align 8 dereferenceable(16) %0) unnamed_addr #0 comdat align 2 {
  %2 = alloca ptr, align 8
  store ptr %0, ptr %2, align 8
  %3 = load ptr, ptr %2, align 8
  %4 = getelementptr inbounds nuw %"class.llvm::StringRef", ptr %3, i32 0, i32 0
  store ptr null, ptr %4, align 8
  %5 = getelementptr inbounds nuw %"class.llvm::StringRef", ptr %3, i32 0, i32 1
  store i64 0, ptr %5, align 8
  ret void
}

; Function Attrs: mustprogress nounwind uwtable
define internal noundef zeroext i1 @_ZN12_GLOBAL__N_110MasmParser34parseDirectiveCFIPersonalityOrLsdaEb(ptr noundef nonnull align 8 dereferenceable(1144) %0, i1 noundef zeroext %1) #0 align 2 {
  %3 = alloca i1, align 1
  %4 = alloca ptr, align 8
  %5 = alloca i8, align 1
  %6 = alloca i64, align 8
  %7 = alloca %"class.llvm::StringRef", align 8
  %8 = alloca %"class.llvm::Twine", align 8
  %9 = alloca %"class.llvm::Twine", align 8
  %10 = alloca %"class.llvm::Twine", align 8
  %11 = alloca ptr, align 8
  %12 = alloca %"class.llvm::Twine", align 8
  store ptr %0, ptr %4, align 8
  %13 = zext i1 %1 to i8
  store i8 %13, ptr %5, align 1
  %14 = load ptr, ptr %4, align 8
  store i64 0, ptr %6, align 8
  %15 = load ptr, ptr %14, align 8
  %16 = getelementptr inbounds ptr, ptr %15, i64 32
  %17 = load ptr, ptr %16, align 8
  %18 = call noundef zeroext i1 %17(ptr noundef nonnull align 8 dereferenceable(1144) %14, ptr noundef nonnull align 8 dereferenceable(8) %6)
  br i1 %18, label %19, label %20

19:                                               ; preds = %2
  store i1 true, ptr %3, align 1
  br label %71

20:                                               ; preds = %2
  %21 = load i64, ptr %6, align 8
  %22 = icmp eq i64 %21, 255
  br i1 %22, label %23, label %24

23:                                               ; preds = %20
  store i1 false, ptr %3, align 1
  br label %71

24:                                               ; preds = %20
  call void @_ZN4llvm9StringRefC2Ev(ptr noundef nonnull align 8 dereferenceable(16) %7) #15
  %25 = load i64, ptr %6, align 8
  %26 = call noundef zeroext i1 @_ZL15isValidEncodingl(i64 noundef %25)
  %27 = xor i1 %26, true
  call void @_ZN4llvm5TwineC2EPKc(ptr noundef nonnull align 8 dereferenceable(34) %8, ptr noundef @.str.305)
  %28 = call noundef zeroext i1 @_ZN4llvm11MCAsmParser5checkEbRKNS_5TwineE(ptr noundef nonnull align 8 dereferenceable(34) %14, i1 noundef zeroext %27, ptr noundef nonnull align 8 dereferenceable(34) %8)
  br i1 %28, label %37, label %29

29:                                               ; preds = %24
  call void @_ZN4llvm5TwineC2EPKc(ptr noundef nonnull align 8 dereferenceable(34) %9, ptr noundef @.str.174)
  %30 = call noundef zeroext i1 @_ZN4llvm11MCAsmParser10parseTokenENS_8AsmToken9TokenKindERKNS_5TwineE(ptr noundef nonnull align 8 dereferenceable(34) %14, i32 noundef 26, ptr noundef nonnull align 8 dereferenceable(34) %9)
  br i1 %30, label %37, label %31

31:                                               ; preds = %29
  %32 = load ptr, ptr %14, align 8
  %33 = getelementptr inbounds ptr, ptr %32, i64 24
  %34 = load ptr, ptr %33, align 8
  %35 = call noundef zeroext i1 %34(ptr noundef nonnull align 8 dereferenceable(1144) %14, ptr noundef nonnull align 8 dereferenceable(16) %7)
  call void @_ZN4llvm5TwineC2EPKc(ptr noundef nonnull align 8 dereferenceable(34) %10, ptr noundef @.str.200)
  %36 = call noundef zeroext i1 @_ZN4llvm11MCAsmParser5checkEbRKNS_5TwineE(ptr noundef nonnull align 8 dereferenceable(34) %14, i1 noundef zeroext %35, ptr noundef nonnull align 8 dereferenceable(34) %10)
  br label %37

37:                                               ; preds = %31, %29, %24
  %38 = phi i1 [ true, %29 ], [ true, %24 ], [ %36, %31 ]
  br i1 %38, label %39, label %40

39:                                               ; preds = %37
  store i1 true, ptr %3, align 1
  br label %71

40:                                               ; preds = %37
  %41 = load ptr, ptr %14, align 8
  %42 = getelementptr inbounds ptr, ptr %41, i64 6
  %43 = load ptr, ptr %42, align 8
  %44 = call noundef nonnull align 8 dereferenceable(2432) ptr %43(ptr noundef nonnull align 8 dereferenceable(1144) %14)
  call void @_ZN4llvm5TwineC2ERKNS_9StringRefE(ptr noundef nonnull align 8 dereferenceable(34) %12, ptr noundef nonnull align 8 dereferenceable(16) %7)
  %45 = call noundef ptr @_ZN4llvm9MCContext17getOrCreateSymbolERKNS_5TwineE(ptr noundef nonnull align 8 dereferenceable(2432) %44, ptr noundef nonnull align 8 dereferenceable(34) %12)
  store ptr %45, ptr %11, align 8
  %46 = load i8, ptr %5, align 1
  %47 = trunc i8 %46 to i1
  br i1 %47, label %48, label %59

48:                                               ; preds = %40
  %49 = load ptr, ptr %14, align 8
  %50 = getelementptr inbounds ptr, ptr %49, i64 7
  %51 = load ptr, ptr %50, align 8
  %52 = call noundef nonnull align 8 dereferenceable(288) ptr %51(ptr noundef nonnull align 8 dereferenceable(1144) %14)
  %53 = load ptr, ptr %11, align 8
  %54 = load i64, ptr %6, align 8
  %55 = trunc i64 %54 to i32
  %56 = load ptr, ptr %52, align 8
  %57 = getelementptr inbounds ptr, ptr %56, i64 115
  %58 = load ptr, ptr %57, align 8
  call void %58(ptr noundef nonnull align 8 dereferenceable(288) %52, ptr noundef %53, i32 noundef %55)
  br label %70

59:                                               ; preds = %40
  %60 = load ptr, ptr %14, align 8
  %61 = getelementptr inbounds ptr, ptr %60, i64 7
  %62 = load ptr, ptr %61, align 8
  %63 = call noundef nonnull align 8 dereferenceable(288) ptr %62(ptr noundef nonnull align 8 dereferenceable(1144) %14)
  %64 = load ptr, ptr %11, align 8
  %65 = load i64, ptr %6, align 8
  %66 = trunc i64 %65 to i32
  %67 = load ptr, ptr %63, align 8
  %68 = getelementptr inbounds ptr, ptr %67, i64 116
  %69 = load ptr, ptr %68, align 8
  call void %69(ptr noundef nonnull align 8 dereferenceable(288) %63, ptr noundef %64, i32 noundef %66)
  br label %70

70:                                               ; preds = %59, %48
  store i1 false, ptr %3, align 1
  br label %71

71:                                               ; preds = %70, %39, %23, %19
  %72 = load i1, ptr %3, align 1
  ret i1 %72
}