; Function Attrs: mustprogress nounwind uwtable
define internal fastcc noundef zeroext i1 @_ZN12_GLOBAL__N_110MasmParser34parseDirectiveCFIPersonalityOrLsdaEb(ptr noundef nonnull align 8 dereferenceable(1144) %0, i1 noundef zeroext %1) unnamed_addr #0 align 2 {
  %3 = alloca i64, align 8
  %4 = alloca %"class.llvm::StringRef", align 8
  %5 = alloca %"class.llvm::Twine", align 8
  %6 = alloca %"class.llvm::Twine", align 8
  %7 = alloca %"class.llvm::Twine", align 8
  %8 = alloca %"class.llvm::Twine", align 8
  store i64 0, ptr %3, align 8
  %9 = load ptr, ptr %0, align 8
  %10 = getelementptr inbounds nuw i8, ptr %9, i64 256
  %11 = load ptr, ptr %10, align 8
  %12 = call noundef zeroext i1 %11(ptr noundef nonnull align 8 dereferenceable(1144) %0, ptr noundef nonnull align 8 dereferenceable(8) %3) #24
  br i1 %12, label %.critedge, label %13

13:                                               ; preds = %2
  %14 = load i64, ptr %3, align 8
  %15 = icmp eq i64 %14, 255
  br i1 %15, label %.critedge, label %16

16:                                               ; preds = %13
  call void @llvm.memset.p0.i64(ptr noundef nonnull align 8 dereferenceable(16) %4, i8 0, i64 16, i1 false)
  %.not.i = icmp ult i64 %14, 256
  br i1 %.not.i, label %17, label %_ZL15isValidEncodingl.exit

17:                                               ; preds = %16
  %18 = trunc nuw i64 %14 to i32
  %19 = and i32 %18, 13
  %or.cond.not.i = icmp eq i32 %19, 0
  br i1 %or.cond.not.i, label %21, label %switch.early.test.i

switch.early.test.i:                              ; preds = %17
  %20 = and i32 %18, 15
  switch i32 %20, label %_ZL15isValidEncodingl.exit [
    i32 12, label %21
    i32 11, label %21
    i32 10, label %21
    i32 8, label %21
    i32 4, label %21
    i32 3, label %21
  ]

21:                                               ; preds = %switch.early.test.i, %switch.early.test.i, %switch.early.test.i, %switch.early.test.i, %switch.early.test.i, %switch.early.test.i, %17
  %22 = and i64 %14, 96
  %or.cond15.not.i = icmp ne i64 %22, 0
  br label %_ZL15isValidEncodingl.exit

_ZL15isValidEncodingl.exit:                       ; preds = %16, %switch.early.test.i, %21
  %.0.i = phi i1 [ true, %16 ], [ true, %switch.early.test.i ], [ %or.cond15.not.i, %21 ]
  %23 = getelementptr inbounds nuw i8, ptr %5, i64 32
  %24 = getelementptr inbounds nuw i8, ptr %5, i64 33
  store i8 1, ptr %24, align 1
  store ptr @.str.305, ptr %5, align 8
  store i8 3, ptr %23, align 8
  %25 = call noundef zeroext i1 @_ZN4llvm11MCAsmParser5checkEbRKNS_5TwineE(ptr noundef nonnull align 8 dereferenceable(34) %0, i1 noundef zeroext %.0.i, ptr noundef nonnull align 8 dereferenceable(34) %5) #24
  br i1 %25, label %.critedge, label %26

26:                                               ; preds = %_ZL15isValidEncodingl.exit
  %27 = getelementptr inbounds nuw i8, ptr %6, i64 32
  %28 = getelementptr inbounds nuw i8, ptr %6, i64 33
  store i8 1, ptr %28, align 1
  store ptr @.str.174, ptr %6, align 8
  store i8 3, ptr %27, align 8
  %29 = call noundef zeroext i1 @_ZN4llvm11MCAsmParser10parseTokenENS_8AsmToken9TokenKindERKNS_5TwineE(ptr noundef nonnull align 8 dereferenceable(34) %0, i32 noundef 26, ptr noundef nonnull align 8 dereferenceable(34) %6) #24
  br i1 %29, label %.critedge, label %30

30:                                               ; preds = %26
  %31 = load ptr, ptr %0, align 8
  %32 = getelementptr inbounds nuw i8, ptr %31, i64 192
  %33 = load ptr, ptr %32, align 8
  %34 = call noundef zeroext i1 %33(ptr noundef nonnull align 8 dereferenceable(1144) %0, ptr noundef nonnull align 8 dereferenceable(16) %4) #24
  %35 = getelementptr inbounds nuw i8, ptr %7, i64 32
  %36 = getelementptr inbounds nuw i8, ptr %7, i64 33
  store i8 1, ptr %36, align 1
  store ptr @.str.200, ptr %7, align 8
  store i8 3, ptr %35, align 8
  %37 = call noundef zeroext i1 @_ZN4llvm11MCAsmParser5checkEbRKNS_5TwineE(ptr noundef nonnull align 8 dereferenceable(34) %0, i1 noundef zeroext %34, ptr noundef nonnull align 8 dereferenceable(34) %7) #24
  br i1 %37, label %.critedge, label %.critedge.sink.split

.critedge.sink.split:                             ; preds = %30
  %38 = load ptr, ptr %0, align 8
  %39 = getelementptr inbounds nuw i8, ptr %38, i64 48
  %40 = load ptr, ptr %39, align 8
  %41 = call noundef nonnull align 8 dereferenceable(2432) ptr %40(ptr noundef nonnull align 8 dereferenceable(1144) %0) #24
  %42 = getelementptr inbounds nuw i8, ptr %8, i64 32
  store i8 5, ptr %42, align 8
  %43 = getelementptr inbounds nuw i8, ptr %8, i64 33
  store i8 1, ptr %43, align 1
  %44 = load ptr, ptr %4, align 8
  store ptr %44, ptr %8, align 8
  %45 = getelementptr inbounds nuw i8, ptr %4, i64 8
  %46 = load i64, ptr %45, align 8
  %47 = getelementptr inbounds nuw i8, ptr %8, i64 8
  store i64 %46, ptr %47, align 8
  %48 = call noundef ptr @_ZN4llvm9MCContext17getOrCreateSymbolERKNS_5TwineE(ptr noundef nonnull align 8 dereferenceable(2432) %41, ptr noundef nonnull align 8 dereferenceable(34) %8) #24
  %49 = load ptr, ptr %0, align 8
  %50 = getelementptr inbounds nuw i8, ptr %49, i64 56
  %51 = load ptr, ptr %50, align 8
  %52 = call noundef nonnull align 8 dereferenceable(288) ptr %51(ptr noundef nonnull align 8 dereferenceable(1144) %0) #24
  %53 = load i64, ptr %3, align 8
  %54 = trunc i64 %53 to i32
  %55 = load ptr, ptr %52, align 8
  %. = select i1 %1, i64 920, i64 928
  %56 = getelementptr inbounds nuw i8, ptr %55, i64 %.
  %57 = load ptr, ptr %56, align 8
  call void %57(ptr noundef nonnull align 8 dereferenceable(288) %52, ptr noundef %48, i32 noundef %54) #24
  br label %.critedge

.critedge:                                        ; preds = %.critedge.sink.split, %30, %_ZL15isValidEncodingl.exit, %26, %13, %2
  %.0 = phi i1 [ true, %2 ], [ false, %13 ], [ true, %26 ], [ true, %_ZL15isValidEncodingl.exit ], [ true, %30 ], [ false, %.critedge.sink.split ]
  ret i1 %.0
}